target datalayout = "e-m:e-p270:32:32-p271:32:32-p272:64:64-i64:64-i128:128-f80:128-n8:16:32:64-S128"
target triple = "x86_64-pc-linux-gnu"

%struct.ExpandedObjectMethods = type { ptr, ptr }
%struct.TypeCacheEntry = type { i32, i32, i16, i8, i8, i8, i8, i32, i32, i32, i32, i32, i32, i32, i32, i32, i32, i32, i32, i32, i32, %struct.FmgrInfo, %struct.FmgrInfo, %struct.FmgrInfo, %struct.FmgrInfo, ptr, i64, ptr, i32, i32, %struct.FmgrInfo, %struct.FmgrInfo, %struct.FmgrInfo, ptr, i32, i32, ptr, i32, ptr, ptr }
%struct.FmgrInfo = type { ptr, i32, i16, i8, i8, i8, ptr, ptr, ptr }
%struct.TupleDescData = type { i32, i32, i32, i32, ptr, [0 x %struct.CompactAttribute] }
%struct.CompactAttribute = type { i32, i16, i8, i8, i8, i8, i8, i8, i8 }
%struct.ExpandedRecordHeader = type { %struct.ExpandedObjectHeader, i32, i32, i32, i32, i32, ptr, i64, ptr, ptr, i32, i64, i64, i32, i8, ptr, ptr, ptr, ptr, ptr, ptr, %struct.MemoryContextCallback }
%struct.ExpandedObjectHeader = type { i32, ptr, ptr, [10 x i8], [10 x i8] }
%struct.MemoryContextCallback = type { ptr, ptr, ptr }

@.str = private unnamed_addr constant [25 x i8] c"type %s is not composite\00", align 1
@.str.1 = private unnamed_addr constant [17 x i8] c"expandedrecord.c\00", align 1
@__func__.make_expanded_record_from_typeid = private unnamed_addr constant [33 x i8] c"make_expanded_record_from_typeid\00", align 1
@.str.2 = private unnamed_addr constant [16 x i8] c"expanded record\00", align 1
@ER_methods = internal constant %struct.ExpandedObjectMethods { ptr @ER_get_flat_size, ptr @ER_flatten_into }, align 8

; Function Attrs: nounwind uwtable
define dso_local ptr @make_expanded_record_from_typeid(i32 noundef %0, i32 noundef %1, ptr noundef %2) #0 {
  %4 = alloca i32, align 4
  %5 = alloca i32, align 4
  %6 = alloca ptr, align 8
  %7 = alloca ptr, align 8
  %8 = alloca i32, align 4
  %9 = alloca ptr, align 8
  %10 = alloca i64, align 8
  %11 = alloca ptr, align 8
  %12 = alloca ptr, align 8
  %13 = alloca ptr, align 8
  %14 = alloca i32, align 4
  store i32 %0, ptr %4, align 4
  store i32 %1, ptr %5, align 4
  store ptr %2, ptr %6, align 8
  call void @llvm.lifetime.start.p0(i64 8, ptr %7) #9
  call void @llvm.lifetime.start.p0(i64 4, ptr %8) #9
  store i32 0, ptr %8, align 4
  call void @llvm.lifetime.start.p0(i64 8, ptr %9) #9
  call void @llvm.lifetime.start.p0(i64 8, ptr %10) #9
  call void @llvm.lifetime.start.p0(i64 8, ptr %11) #9
  call void @llvm.lifetime.start.p0(i64 8, ptr %12) #9
  %15 = load i32, ptr %4, align 4
  %16 = icmp ne i32 %15, 2249
  br i1 %16, label %17, label %58

17:                                               ; preds = %3
  call void @llvm.lifetime.start.p0(i64 8, ptr %13) #9
  %18 = load i32, ptr %4, align 4
  %19 = call ptr @lookup_type_cache(i32 noundef %18, i32 noundef 4352)
  store ptr %19, ptr %13, align 8
  %20 = load ptr, ptr %13, align 8
  %21 = getelementptr inbounds nuw %struct.TypeCacheEntry, ptr %20, i32 0, i32 6
  %22 = load i8, ptr %21, align 1
  %23 = sext i8 %22 to i32
  %24 = icmp eq i32 %23, 100
  br i1 %24, label %25, label %32

25:                                               ; preds = %17
  %26 = load i32, ptr %8, align 4
  %27 = or i32 %26, 64
  store i32 %27, ptr %8, align 4
  %28 = load ptr, ptr %13, align 8
  %29 = getelementptr inbounds nuw %struct.TypeCacheEntry, ptr %28, i32 0, i32 34
  %30 = load i32, ptr %29, align 8
  %31 = call ptr @lookup_type_cache(i32 noundef %30, i32 noundef 256)
  store ptr %31, ptr %13, align 8
  br label %32

32:                                               ; preds = %25, %17
  %33 = load ptr, ptr %13, align 8
  %34 = getelementptr inbounds nuw %struct.TypeCacheEntry, ptr %33, i32 0, i32 25
  %35 = load ptr, ptr %34, align 8
  %36 = icmp eq ptr %35, null
  br i1 %36, label %37, label %51

37:                                               ; preds = %32
  br label %38

38:                                               ; preds = %37
  br i1 true, label %39, label %41

39:                                               ; preds = %38
  %40 = call zeroext i1 @errstart_cold(i32 noundef 21, ptr noundef null) #10
  br i1 %40, label %43, label %48

41:                                               ; preds = %38
  %42 = call zeroext i1 @errstart(i32 noundef 21, ptr noundef null)
  br i1 %42, label %43, label %48

43:                                               ; preds = %41, %39
  %44 = call i32 @errcode(i32 noundef 151027844)
  %45 = load i32, ptr %4, align 4
  %46 = call ptr @format_type_be(i32 noundef %45)
  %47 = call i32 (ptr, ...) @errmsg(ptr noundef @.str, ptr noundef %46)
  call void @errfinish(ptr noundef @.str.1, i32 noundef 100, ptr noundef @__func__.make_expanded_record_from_typeid)
  br label %48

48:                                               ; preds = %43, %41, %39
  unreachable

49:                                               ; No predecessors!
  br label %50

50:                                               ; preds = %49
  br label %51

51:                                               ; preds = %50, %32
  %52 = load ptr, ptr %13, align 8
  %53 = getelementptr inbounds nuw %struct.TypeCacheEntry, ptr %52, i32 0, i32 25
  %54 = load ptr, ptr %53, align 8
  store ptr %54, ptr %9, align 8
  %55 = load ptr, ptr %13, align 8
  %56 = getelementptr inbounds nuw %struct.TypeCacheEntry, ptr %55, i32 0, i32 26
  %57 = load i64, ptr %56, align 8
  store i64 %57, ptr %10, align 8
  call void @llvm.lifetime.end.p0(i64 8, ptr %13) #9
  br label %65

58:                                               ; preds = %3
  %59 = load i32, ptr %4, align 4
  %60 = load i32, ptr %5, align 4
  %61 = call ptr @lookup_rowtype_tupdesc(i32 noundef %59, i32 noundef %60)
  store ptr %61, ptr %9, align 8
  %62 = load i32, ptr %4, align 4
  %63 = load i32, ptr %5, align 4
  %64 = call i64 @assign_record_type_identifier(i32 noundef %62, i32 noundef %63)
  store i64 %64, ptr %10, align 8
  br label %65

65:                                               ; preds = %58, %51
  br label %66

66:                                               ; preds = %65
  br label %67

67:                                               ; preds = %66
  br label %68

68:                                               ; preds = %67
  store i32 1, ptr %14, align 4
  %69 = load ptr, ptr %6, align 8
  %70 = call ptr @AllocSetContextCreateInternal(ptr noundef %69, ptr noundef @.str.2, i64 noundef 0, i64 noundef 8192, i64 noundef 8388608)
  store ptr %70, ptr %11, align 8
  %71 = load ptr, ptr %11, align 8
  %72 = load ptr, ptr %9, align 8
  %73 = getelementptr inbounds nuw %struct.TupleDescData, ptr %72, i32 0, i32 0
  %74 = load i32, ptr %73, align 8
  %75 = sext i32 %74 to i64
  %76 = mul i64 %75, 9
  %77 = add i64 208, %76
  %78 = call ptr @MemoryContextAlloc(ptr noundef %71, i64 noundef %77)
  store ptr %78, ptr %7, align 8
  %79 = load ptr, ptr %7, align 8
  call void @llvm.memset.p0.i64(ptr align 8 %79, i8 0, i64 208, i1 false)
  %80 = load ptr, ptr %7, align 8
  %81 = getelementptr inbounds nuw %struct.ExpandedRecordHeader, ptr %80, i32 0, i32 0
  %82 = load ptr, ptr %11, align 8
  call void @EOH_init_header(ptr noundef %81, ptr noundef @ER_methods, ptr noundef %82)
  %83 = load ptr, ptr %7, align 8
  %84 = getelementptr inbounds nuw %struct.ExpandedRecordHeader, ptr %83, i32 0, i32 1
  store i32 1384727874, ptr %84, align 8
  %85 = load ptr, ptr %7, align 8
  %86 = getelementptr inbounds nuw i8, ptr %85, i64 208
  store ptr %86, ptr %12, align 8
  %87 = load ptr, ptr %12, align 8
  %88 = load ptr, ptr %7, align 8
  %89 = getelementptr inbounds nuw %struct.ExpandedRecordHeader, ptr %88, i32 0, i32 8
  store ptr %87, ptr %89, align 8
  %90 = load ptr, ptr %12, align 8
  %91 = load ptr, ptr %9, align 8
  %92 = getelementptr inbounds nuw %struct.TupleDescData, ptr %91, i32 0, i32 0
  %93 = load i32, ptr %92, align 8
  %94 = sext i32 %93 to i64
  %95 = mul i64 %94, 8
  %96 = getelementptr inbounds nuw i8, ptr %90, i64 %95
  %97 = load ptr, ptr %7, align 8
  %98 = getelementptr inbounds nuw %struct.ExpandedRecordHeader, ptr %97, i32 0, i32 9
  store ptr %96, ptr %98, align 8
  %99 = load ptr, ptr %9, align 8
  %100 = getelementptr inbounds nuw %struct.TupleDescData, ptr %99, i32 0, i32 0
  %101 = load i32, ptr %100, align 8
  %102 = load ptr, ptr %7, align 8
  %103 = getelementptr inbounds nuw %struct.ExpandedRecordHeader, ptr %102, i32 0, i32 10
  store i32 %101, ptr %103, align 8
  %104 = load i32, ptr %4, align 4
  %105 = load ptr, ptr %7, align 8
  %106 = getelementptr inbounds nuw %struct.ExpandedRecordHeader, ptr %105, i32 0, i32 3
  store i32 %104, ptr %106, align 8
  %107 = load ptr, ptr %9, align 8
  %108 = getelementptr inbounds nuw %struct.TupleDescData, ptr %107, i32 0, i32 1
  %109 = load i32, ptr %108, align 4
  %110 = load ptr, ptr %7, align 8
  %111 = getelementptr inbounds nuw %struct.ExpandedRecordHeader, ptr %110, i32 0, i32 4
  store i32 %109, ptr %111, align 4
  %112 = load ptr, ptr %9, align 8
  %113 = getelementptr inbounds nuw %struct.TupleDescData, ptr %112, i32 0, i32 2
  %114 = load i32, ptr %113, align 8
  %115 = load ptr, ptr %7, align 8
  %116 = getelementptr inbounds nuw %struct.ExpandedRecordHeader, ptr %115, i32 0, i32 5
  store i32 %114, ptr %116, align 8
  %117 = load i64, ptr %10, align 8
  %118 = load ptr, ptr %7, align 8
  %119 = getelementptr inbounds nuw %struct.ExpandedRecordHeader, ptr %118, i32 0, i32 7
  store i64 %117, ptr %119, align 8
  %120 = load i32, ptr %8, align 4
  %121 = load ptr, ptr %7, align 8
  %122 = getelementptr inbounds nuw %struct.ExpandedRecordHeader, ptr %121, i32 0, i32 2
  store i32 %120, ptr %122, align 4
  %123 = load ptr, ptr %9, align 8
  %124 = getelementptr inbounds nuw %struct.TupleDescData, ptr %123, i32 0, i32 3
  %125 = load i32, ptr %124, align 4
  %126 = icmp sge i32 %125, 0
  br i1 %126, label %127, label %162

127:                                              ; preds = %68
  %128 = load ptr, ptr %7, align 8
  %129 = getelementptr inbounds nuw %struct.ExpandedRecordHeader, ptr %128, i32 0, i32 21
  %130 = getelementptr inbounds nuw %struct.MemoryContextCallback, ptr %129, i32 0, i32 0
  store ptr @ER_mc_callback, ptr %130, align 8
  %131 = load ptr, ptr %7, align 8
  %132 = load ptr, ptr %7, align 8
  %133 = getelementptr inbounds nuw %struct.ExpandedRecordHeader, ptr %132, i32 0, i32 21
  %134 = getelementptr inbounds nuw %struct.MemoryContextCallback, ptr %133, i32 0, i32 1
  store ptr %131, ptr %134, align 8
  %135 = load ptr, ptr %7, align 8
  %136 = getelementptr inbounds nuw %struct.ExpandedRecordHeader, ptr %135, i32 0, i32 0
  %137 = getelementptr inbounds nuw %struct.ExpandedObjectHeader, ptr %136, i32 0, i32 2
  %138 = load ptr, ptr %137, align 8
  %139 = load ptr, ptr %7, align 8
  %140 = getelementptr inbounds nuw %struct.ExpandedRecordHeader, ptr %139, i32 0, i32 21
  call void @MemoryContextRegisterResetCallback(ptr noundef %138, ptr noundef %140)
  %141 = load ptr, ptr %9, align 8
  %142 = load ptr, ptr %7, align 8
  %143 = getelementptr inbounds nuw %struct.ExpandedRecordHeader, ptr %142, i32 0, i32 6
  store ptr %141, ptr %143, align 8
  %144 = load ptr, ptr %9, align 8
  %145 = getelementptr inbounds nuw %struct.TupleDescData, ptr %144, i32 0, i32 3
  %146 = load i32, ptr %145, align 4
  %147 = add i32 %146, 1
  store i32 %147, ptr %145, align 4
  %148 = load i32, ptr %4, align 4
  %149 = icmp eq i32 %148, 2249
  br i1 %149, label %150, label %161

150:                                              ; preds = %127
  br label %151

151:                                              ; preds = %150
  %152 = load ptr, ptr %9, align 8
  %153 = getelementptr inbounds nuw %struct.TupleDescData, ptr %152, i32 0, i32 3
  %154 = load i32, ptr %153, align 4
  %155 = icmp sge i32 %154, 0
  br i1 %155, label %156, label %158

156:                                              ; preds = %151
  %157 = load ptr, ptr %9, align 8
  call void @DecrTupleDescRefCount(ptr noundef %157)
  br label %158

158:                                              ; preds = %156, %151
  br label %159

159:                                              ; preds = %158
  br label %160

160:                                              ; preds = %159
  br label %161

161:                                              ; preds = %160, %127
  br label %166

162:                                              ; preds = %68
  %163 = load ptr, ptr %9, align 8
  %164 = load ptr, ptr %7, align 8
  %165 = getelementptr inbounds nuw %struct.ExpandedRecordHeader, ptr %164, i32 0, i32 6
  store ptr %163, ptr %165, align 8
  br label %166

166:                                              ; preds = %162, %161
  %167 = load ptr, ptr %7, align 8
  call void @llvm.lifetime.end.p0(i64 8, ptr %12) #9
  call void @llvm.lifetime.end.p0(i64 8, ptr %11) #9
  call void @llvm.lifetime.end.p0(i64 8, ptr %10) #9
  call void @llvm.lifetime.end.p0(i64 8, ptr %9) #9
  call void @llvm.lifetime.end.p0(i64 4, ptr %8) #9
  call void @llvm.lifetime.end.p0(i64 8, ptr %7) #9
  ret ptr %167
}