; Function Attrs: nounwind uwtable
define dso_local noundef ptr @make_expanded_record_from_typeid(i32 noundef %0, i32 noundef %1, ptr noundef %2) local_unnamed_addr #0 {
  %.not = icmp eq i32 %0, 2249
  br i1 %.not, label %25, label %4

4:                                                ; preds = %3
  %5 = tail call ptr @lookup_type_cache(i32 noundef %0, i32 noundef 4352) #8
  %6 = getelementptr inbounds nuw i8, ptr %5, i64 13
  %7 = load i8, ptr %6, align 1
  %8 = icmp eq i8 %7, 100
  br i1 %8, label %9, label %13

9:                                                ; preds = %4
  %10 = getelementptr inbounds nuw i8, ptr %5, i64 448
  %11 = load i32, ptr %10, align 8
  %12 = tail call ptr @lookup_type_cache(i32 noundef %11, i32 noundef 256) #8
  br label %13

13:                                               ; preds = %9, %4
  %.052 = phi ptr [ %12, %9 ], [ %5, %4 ]
  %.0 = phi i32 [ 64, %9 ], [ 0, %4 ]
  %14 = getelementptr inbounds nuw i8, ptr %.052, i64 264
  %15 = load ptr, ptr %14, align 8
  %16 = icmp eq ptr %15, null
  br i1 %16, label %17, label %22

17:                                               ; preds = %13
  %18 = tail call zeroext i1 @errstart_cold(i32 noundef 21, ptr noundef null) #9
  tail call void @llvm.assume(i1 %18)
  %19 = tail call i32 @errcode(i32 noundef 151027844) #8
  %20 = tail call ptr @format_type_be(i32 noundef %0) #8
  %21 = tail call i32 (ptr, ...) @errmsg(ptr noundef nonnull @.str, ptr noundef %20) #8
  tail call void @errfinish(ptr noundef nonnull @.str.1, i32 noundef 100, ptr noundef nonnull @__func__.make_expanded_record_from_typeid) #8
  unreachable

22:                                               ; preds = %13
  %23 = getelementptr inbounds nuw i8, ptr %.052, i64 272
  %24 = load i64, ptr %23, align 8
  br label %28

25:                                               ; preds = %3
  %26 = tail call ptr @lookup_rowtype_tupdesc(i32 noundef 2249, i32 noundef %1) #8
  %27 = tail call i64 @assign_record_type_identifier(i32 noundef 2249, i32 noundef %1) #8
  br label %28

28:                                               ; preds = %22, %25
  %.054 = phi i64 [ %24, %22 ], [ %27, %25 ]
  %.053 = phi ptr [ %15, %22 ], [ %26, %25 ]
  %.1 = phi i32 [ %.0, %22 ], [ 0, %25 ]
  %29 = tail call ptr @AllocSetContextCreateInternal(ptr noundef %2, ptr noundef nonnull @.str.2, i64 noundef 0, i64 noundef 8192, i64 noundef 8388608) #8
  %30 = load i32, ptr %.053, align 8
  %31 = sext i32 %30 to i64
  %32 = mul nsw i64 %31, 9
  %33 = add nsw i64 %32, 208
  %34 = tail call ptr @MemoryContextAlloc(ptr noundef %29, i64 noundef %33) #8
  tail call void @llvm.memset.p0.i64(ptr noundef nonnull align 8 dereferenceable(208) %34, i8 0, i64 208, i1 false)
  tail call void @EOH_init_header(ptr noundef nonnull %34, ptr noundef nonnull @ER_methods, ptr noundef %29) #8
  %35 = getelementptr inbounds nuw i8, ptr %34, i64 48
  store i32 1384727874, ptr %35, align 8
  %36 = getelementptr inbounds nuw i8, ptr %34, i64 208
  %37 = getelementptr inbounds nuw i8, ptr %34, i64 88
  store ptr %36, ptr %37, align 8
  %38 = load i32, ptr %.053, align 8
  %39 = sext i32 %38 to i64
  %40 = shl nsw i64 %39, 3
  %41 = getelementptr inbounds nuw i8, ptr %36, i64 %40
  %42 = getelementptr inbounds nuw i8, ptr %34, i64 96
  store ptr %41, ptr %42, align 8
  %43 = load i32, ptr %.053, align 8
  %44 = getelementptr inbounds nuw i8, ptr %34, i64 104
  store i32 %43, ptr %44, align 8
  %45 = getelementptr inbounds nuw i8, ptr %34, i64 56
  store i32 %0, ptr %45, align 8
  %46 = getelementptr inbounds nuw i8, ptr %.053, i64 4
  %47 = load i32, ptr %46, align 4
  %48 = getelementptr inbounds nuw i8, ptr %34, i64 60
  store i32 %47, ptr %48, align 4
  %49 = getelementptr inbounds nuw i8, ptr %.053, i64 8
  %50 = load i32, ptr %49, align 8
  %51 = getelementptr inbounds nuw i8, ptr %34, i64 64
  store i32 %50, ptr %51, align 8
  %52 = getelementptr inbounds nuw i8, ptr %34, i64 80
  store i64 %.054, ptr %52, align 8
  %53 = getelementptr inbounds nuw i8, ptr %34, i64 52
  store i32 %.1, ptr %53, align 4
  %54 = getelementptr inbounds nuw i8, ptr %.053, i64 12
  %55 = load i32, ptr %54, align 4
  %56 = icmp sgt i32 %55, -1
  br i1 %56, label %57, label %67

57:                                               ; preds = %28
  %58 = getelementptr inbounds nuw i8, ptr %34, i64 184
  store ptr @ER_mc_callback, ptr %58, align 8
  %59 = getelementptr inbounds nuw i8, ptr %34, i64 192
  store ptr %34, ptr %59, align 8
  %60 = getelementptr inbounds nuw i8, ptr %34, i64 16
  %61 = load ptr, ptr %60, align 8
  tail call void @MemoryContextRegisterResetCallback(ptr noundef %61, ptr noundef nonnull %58) #8
  %62 = getelementptr inbounds nuw i8, ptr %34, i64 72
  store ptr %.053, ptr %62, align 8
  %63 = load i32, ptr %54, align 4
  %64 = add i32 %63, 1
  store i32 %64, ptr %54, align 4
  %65 = icmp sgt i32 %64, -1
  %or.cond = select i1 %.not, i1 %65, i1 false
  br i1 %or.cond, label %66, label %69

66:                                               ; preds = %57
  tail call void @DecrTupleDescRefCount(ptr noundef nonnull %.053) #8
  br label %69

67:                                               ; preds = %28
  %68 = getelementptr inbounds nuw i8, ptr %34, i64 72
  store ptr %.053, ptr %68, align 8
  br label %69

69:                                               ; preds = %57, %66, %67
  ret ptr %34
}